target datalayout = "e-m:e-p270:32:32-p271:32:32-p272:64:64-i64:64-i128:128-f80:128-n8:16:32:64-S128"
target triple = "x86_64-unknown-linux-gnu"

%struct.USetAdder = type { ptr, ptr, ptr, ptr, ptr, ptr }

@_ZL23ID_COMPAT_MATH_CONTINUE = internal constant [10 x i32] [i32 178, i32 180, i32 185, i32 186, i32 8304, i32 8305, i32 8308, i32 8319, i32 8320, i32 8335], align 16
@_ZL20ID_COMPAT_MATH_START = internal constant [13 x i32] [i32 8706, i32 8711, i32 8734, i32 120513, i32 120539, i32 120571, i32 120597, i32 120629, i32 120655, i32 120687, i32 120713, i32 120745, i32 120771], align 16
@_ZN12_GLOBAL__N_19gInpcTrieE = internal global ptr null, align 8
@_ZN12_GLOBAL__N_19gInscTrieE = internal global ptr null, align 8
@_ZN12_GLOBAL__N_17gVoTrieE = internal global ptr null, align 8

; Function Attrs: mustprogress nounwind uwtable
define internal noundef signext i8 @_ZL9U_FAILURE10UErrorCode(i32 noundef %code) #2 {
entry:
  %code.addr = alloca i32, align 4
  store i32 %code, ptr %code.addr, align 4
  %0 = load i32, ptr %code.addr, align 4
  %cmp = icmp sgt i32 %0, 0
  %conv = zext i1 %cmp to i8
  ret i8 %conv
}

; Function Attrs: mustprogress uwtable
define void @uprops_addPropertyStarts_75(i32 noundef %src, ptr noundef %sa, ptr noundef %pErrorCode) #0 {
entry:
  %src.addr = alloca i32, align 4
  %sa.addr = alloca ptr, align 8
  %pErrorCode.addr = alloca ptr, align 8
  %__range2 = alloca ptr, align 8
  %__begin2 = alloca ptr, align 8
  %__end2 = alloca ptr, align 8
  %c = alloca i32, align 4
  %__range23 = alloca ptr, align 8
  %__begin24 = alloca ptr, align 8
  %__end25 = alloca ptr, align 8
  %c9 = alloca i32, align 4
  %trie = alloca ptr, align 8
  %start = alloca i32, align 4
  %end = alloca i32, align 4
  store i32 %src, ptr %src.addr, align 4
  store ptr %sa, ptr %sa.addr, align 8
  store ptr %pErrorCode, ptr %pErrorCode.addr, align 8
  %0 = load ptr, ptr %pErrorCode.addr, align 8
  %1 = load i32, ptr %0, align 4
  %call = call noundef signext i8 @_ZL9U_FAILURE10UErrorCode(i32 noundef %1)
  %tobool = icmp ne i8 %call, 0
  br i1 %tobool, label %if.then, label %if.end

if.then:                                          ; preds = %entry
  br label %while.end

if.end:                                           ; preds = %entry
  %2 = load i32, ptr %src.addr, align 4
  %cmp = icmp eq i32 %2, 17
  br i1 %cmp, label %if.then1, label %if.end18

if.then1:                                         ; preds = %if.end
  store ptr @_ZL23ID_COMPAT_MATH_CONTINUE, ptr %__range2, align 8
  store ptr @_ZL23ID_COMPAT_MATH_CONTINUE, ptr %__begin2, align 8
  store ptr getelementptr inbounds (i32, ptr @_ZL23ID_COMPAT_MATH_CONTINUE, i64 10), ptr %__end2, align 8
  br label %for.cond

for.cond:                                         ; preds = %for.inc, %if.then1
  %3 = load ptr, ptr %__begin2, align 8
  %4 = load ptr, ptr %__end2, align 8
  %cmp2 = icmp ne ptr %3, %4
  br i1 %cmp2, label %for.body, label %for.end

for.body:                                         ; preds = %for.cond
  %5 = load ptr, ptr %__begin2, align 8
  %6 = load i32, ptr %5, align 4
  store i32 %6, ptr %c, align 4
  %7 = load ptr, ptr %sa.addr, align 8
  %add = getelementptr inbounds %struct.USetAdder, ptr %7, i32 0, i32 1
  %8 = load ptr, ptr %add, align 8
  %9 = load ptr, ptr %sa.addr, align 8
  %set = getelementptr inbounds %struct.USetAdder, ptr %9, i32 0, i32 0
  %10 = load ptr, ptr %set, align 8
  %11 = load i32, ptr %c, align 4
  call void %8(ptr noundef %10, i32 noundef %11)
  br label %for.inc

for.inc:                                          ; preds = %for.body
  %12 = load ptr, ptr %__begin2, align 8
  %incdec.ptr = getelementptr inbounds i32, ptr %12, i32 1
  store ptr %incdec.ptr, ptr %__begin2, align 8
  br label %for.cond

for.end:                                          ; preds = %for.cond
  store ptr @_ZL20ID_COMPAT_MATH_START, ptr %__range23, align 8
  store ptr @_ZL20ID_COMPAT_MATH_START, ptr %__begin24, align 8
  store ptr getelementptr inbounds (i32, ptr @_ZL20ID_COMPAT_MATH_START, i64 13), ptr %__end25, align 8
  br label %for.cond6

for.cond6:                                        ; preds = %for.inc15, %for.end
  %13 = load ptr, ptr %__begin24, align 8
  %14 = load ptr, ptr %__end25, align 8
  %cmp7 = icmp ne ptr %13, %14
  br i1 %cmp7, label %for.body8, label %for.end17

for.body8:                                        ; preds = %for.cond6
  %15 = load ptr, ptr %__begin24, align 8
  %16 = load i32, ptr %15, align 4
  store i32 %16, ptr %c9, align 4
  %17 = load ptr, ptr %sa.addr, align 8
  %add10 = getelementptr inbounds %struct.USetAdder, ptr %17, i32 0, i32 1
  %18 = load ptr, ptr %add10, align 8
  %19 = load ptr, ptr %sa.addr, align 8
  %set11 = getelementptr inbounds %struct.USetAdder, ptr %19, i32 0, i32 0
  %20 = load ptr, ptr %set11, align 8
  %21 = load i32, ptr %c9, align 4
  call void %18(ptr noundef %20, i32 noundef %21)
  %22 = load ptr, ptr %sa.addr, align 8
  %add12 = getelementptr inbounds %struct.USetAdder, ptr %22, i32 0, i32 1
  %23 = load ptr, ptr %add12, align 8
  %24 = load ptr, ptr %sa.addr, align 8
  %set13 = getelementptr inbounds %struct.USetAdder, ptr %24, i32 0, i32 0
  %25 = load ptr, ptr %set13, align 8
  %26 = load i32, ptr %c9, align 4
  %add14 = add nsw i32 %26, 1
  call void %23(ptr noundef %25, i32 noundef %add14)
  br label %for.inc15

for.inc15:                                        ; preds = %for.body8
  %27 = load ptr, ptr %__begin24, align 8
  %incdec.ptr16 = getelementptr inbounds i32, ptr %27, i32 1
  store ptr %incdec.ptr16, ptr %__begin24, align 8
  br label %for.cond6

for.end17:                                        ; preds = %for.cond6
  br label %while.end

if.end18:                                         ; preds = %if.end
  %28 = load ptr, ptr %pErrorCode.addr, align 8
  %call19 = call noundef signext i8 @_ZN12_GLOBAL__N_118ulayout_ensureDataER10UErrorCode(ptr noundef nonnull align 4 dereferenceable(4) %28)
  %tobool20 = icmp ne i8 %call19, 0
  br i1 %tobool20, label %if.end22, label %if.then21

if.then21:                                        ; preds = %if.end18
  br label %while.end

if.end22:                                         ; preds = %if.end18
  %29 = load i32, ptr %src.addr, align 4
  switch i32 %29, label %sw.default [
    i32 12, label %sw.bb
    i32 13, label %sw.bb23
    i32 14, label %sw.bb24
  ]

sw.bb:                                            ; preds = %if.end22
  %30 = load ptr, ptr @_ZN12_GLOBAL__N_19gInpcTrieE, align 8
  store ptr %30, ptr %trie, align 8
  br label %sw.epilog

sw.bb23:                                          ; preds = %if.end22
  %31 = load ptr, ptr @_ZN12_GLOBAL__N_19gInscTrieE, align 8
  store ptr %31, ptr %trie, align 8
  br label %sw.epilog

sw.bb24:                                          ; preds = %if.end22
  %32 = load ptr, ptr @_ZN12_GLOBAL__N_17gVoTrieE, align 8
  store ptr %32, ptr %trie, align 8
  br label %sw.epilog

sw.default:                                       ; preds = %if.end22
  %33 = load ptr, ptr %pErrorCode.addr, align 8
  store i32 1, ptr %33, align 4
  br label %while.end

sw.epilog:                                        ; preds = %sw.bb24, %sw.bb23, %sw.bb
  %34 = load ptr, ptr %trie, align 8
  %cmp25 = icmp eq ptr %34, null
  br i1 %cmp25, label %if.then26, label %if.end27

if.then26:                                        ; preds = %sw.epilog
  %35 = load ptr, ptr %pErrorCode.addr, align 8
  store i32 2, ptr %35, align 4
  br label %while.end

if.end27:                                         ; preds = %sw.epilog
  store i32 0, ptr %start, align 4
  br label %while.cond

while.cond:                                       ; preds = %while.body, %if.end27
  %36 = load ptr, ptr %trie, align 8
  %37 = load i32, ptr %start, align 4
  %call28 = call i32 @ucptrie_getRange_75(ptr noundef %36, i32 noundef %37, i32 noundef 0, i32 noundef 0, ptr noundef null, ptr noundef null, ptr noundef null)
  store i32 %call28, ptr %end, align 4
  %cmp29 = icmp sge i32 %call28, 0
  br i1 %cmp29, label %while.body, label %while.end

while.body:                                       ; preds = %while.cond
  %38 = load ptr, ptr %sa.addr, align 8
  %add30 = getelementptr inbounds %struct.USetAdder, ptr %38, i32 0, i32 1
  %39 = load ptr, ptr %add30, align 8
  %40 = load ptr, ptr %sa.addr, align 8
  %set31 = getelementptr inbounds %struct.USetAdder, ptr %40, i32 0, i32 0
  %41 = load ptr, ptr %set31, align 8
  %42 = load i32, ptr %start, align 4
  call void %39(ptr noundef %41, i32 noundef %42)
  %43 = load i32, ptr %end, align 4
  %add32 = add nsw i32 %43, 1
  store i32 %add32, ptr %start, align 4
  br label %while.cond, !llvm.loop !4

while.end:                                        ; preds = %while.cond, %if.then26, %sw.default, %if.then21, %for.end17, %if.then
  ret void
}