; Function Attrs: mustprogress uwtable
define void @uprops_addPropertyStarts_75(i32 noundef %src, ptr nocapture noundef readonly %sa, ptr noundef %pErrorCode) local_unnamed_addr #0 {
entry:
  %0 = load i32, ptr %pErrorCode, align 4
  %cmp.i = icmp slt i32 %0, 1
  br i1 %cmp.i, label %if.end, label %while.end

if.end:                                           ; preds = %entry
  %cmp = icmp eq i32 %src, 17
  br i1 %cmp, label %for.cond.preheader, label %if.end18

for.cond.preheader:                               ; preds = %if.end
  %add = getelementptr inbounds i8, ptr %sa, i64 8
  br label %for.body

for.body:                                         ; preds = %for.cond.preheader, %for.body
  %__begin2.0.idx24 = phi i64 [ 0, %for.cond.preheader ], [ %__begin2.0.add, %for.body ]
  %__begin2.0.ptr = getelementptr inbounds i8, ptr @_ZL23ID_COMPAT_MATH_CONTINUE, i64 %__begin2.0.idx24
  %1 = load i32, ptr %__begin2.0.ptr, align 4
  %2 = load ptr, ptr %add, align 8
  %3 = load ptr, ptr %sa, align 8
  tail call void %2(ptr noundef %3, i32 noundef %1)
  %__begin2.0.add = add nuw nsw i64 %__begin2.0.idx24, 4
  %cmp2.not = icmp eq i64 %__begin2.0.add, 40
  br i1 %cmp2.not, label %for.body8, label %for.body

for.body8:                                        ; preds = %for.body, %for.body8
  %__begin24.0.idx25 = phi i64 [ %__begin24.0.add, %for.body8 ], [ 0, %for.body ]
  %__begin24.0.ptr = getelementptr inbounds i8, ptr @_ZL20ID_COMPAT_MATH_START, i64 %__begin24.0.idx25
  %4 = load i32, ptr %__begin24.0.ptr, align 4
  %5 = load ptr, ptr %add, align 8
  %6 = load ptr, ptr %sa, align 8
  tail call void %5(ptr noundef %6, i32 noundef %4)
  %7 = load ptr, ptr %add, align 8
  %8 = load ptr, ptr %sa, align 8
  %add14 = add nsw i32 %4, 1
  tail call void %7(ptr noundef %8, i32 noundef %add14)
  %__begin24.0.add = add nuw nsw i64 %__begin24.0.idx25, 4
  %cmp7.not = icmp eq i64 %__begin24.0.add, 52
  br i1 %cmp7.not, label %while.end, label %for.body8

if.end18:                                         ; preds = %if.end
  %call19 = tail call fastcc noundef signext i8 @_ZN12_GLOBAL__N_118ulayout_ensureDataER10UErrorCode(ptr noundef nonnull align 4 dereferenceable(4) %pErrorCode), !range !4
  %tobool20.not = icmp eq i8 %call19, 0
  br i1 %tobool20.not, label %while.end, label %if.end22

if.end22:                                         ; preds = %if.end18
  %switch.tableidx = add i32 %src, -12
  %9 = icmp ult i32 %switch.tableidx, 3
  br i1 %9, label %switch.lookup, label %while.end.sink.split

switch.lookup:                                    ; preds = %if.end22
  %10 = zext nneg i32 %switch.tableidx to i64
  %switch.gep = getelementptr inbounds [3 x ptr], ptr @switch.table.uprops_addPropertyStarts_75, i64 0, i64 %10
  %switch.load = load ptr, ptr %switch.gep, align 8
  %trie.0 = load ptr, ptr %switch.load, align 8
  %cmp25 = icmp eq ptr %trie.0, null
  br i1 %cmp25, label %while.end.sink.split, label %while.cond.preheader

while.cond.preheader:                             ; preds = %switch.lookup
  %call2820 = tail call i32 @ucptrie_getRange_75(ptr noundef nonnull %trie.0, i32 noundef 0, i32 noundef 0, i32 noundef 0, ptr noundef null, ptr noundef null, ptr noundef null)
  %cmp2921 = icmp sgt i32 %call2820, -1
  br i1 %cmp2921, label %while.body.lr.ph, label %while.end

while.body.lr.ph:                                 ; preds = %while.cond.preheader
  %add30 = getelementptr inbounds i8, ptr %sa, i64 8
  br label %while.body

while.body:                                       ; preds = %while.body.lr.ph, %while.body
  %call2823 = phi i32 [ %call2820, %while.body.lr.ph ], [ %call28, %while.body ]
  %start.022 = phi i32 [ 0, %while.body.lr.ph ], [ %add32, %while.body ]
  %11 = load ptr, ptr %add30, align 8
  %12 = load ptr, ptr %sa, align 8
  tail call void %11(ptr noundef %12, i32 noundef %start.022)
  %add32 = add nuw nsw i32 %call2823, 1
  %call28 = tail call i32 @ucptrie_getRange_75(ptr noundef nonnull %trie.0, i32 noundef %add32, i32 noundef 0, i32 noundef 0, ptr noundef null, ptr noundef null, ptr noundef null)
  %cmp29 = icmp sgt i32 %call28, -1
  br i1 %cmp29, label %while.body, label %while.end, !llvm.loop !5

while.end.sink.split:                             ; preds = %if.end22, %switch.lookup
  %.sink = phi i32 [ 1, %if.end22 ], [ 2, %switch.lookup ]
  store i32 %.sink, ptr %pErrorCode, align 4
  br label %while.end

while.end:                                        ; preds = %while.body, %for.body8, %while.end.sink.split, %while.cond.preheader, %if.end18, %entry
  ret void
}